; ModuleID = '6/39.c'
source_filename = "6/39.c"
target datalayout = "e-m:e-p270:32:32-p271:32:32-p272:64:64-i64:64-f80:128-n8:16:32:64-S128"
target triple = "x86_64-pc-linux-gnu"

@.str = private unnamed_addr constant [3 x i8] c"%d\00", align 1
@.str.1 = private unnamed_addr constant [6 x i8] c"%d %d\00", align 1
@.str.2 = private unnamed_addr constant [4 x i8] c"%d\0A\00", align 1

; Function Attrs: noinline nounwind uwtable
define dso_local void @main() #0 {
  %1 = alloca i32, align 4
  %2 = alloca i32, align 4
  %3 = alloca i32, align 4
  %4 = alloca i32*, align 8
  %5 = alloca i32, align 4
  %6 = alloca i32, align 4
  %7 = alloca i32*, align 8
  %8 = alloca i32*, align 8
  %9 = alloca i32*, align 8
  %10 = call noalias i8* @malloc(i64 400) #3
  %11 = bitcast i8* %10 to i32*
  store i32* %11, i32** %4, align 8
  %12 = load i32*, i32** %4, align 8
  store i32* %12, i32** %7, align 8
  %13 = call i32 (i8*, ...) @__isoc99_scanf(i8* getelementptr inbounds ([3 x i8], [3 x i8]* @.str, i64 0, i64 0), i32* %1)
  store i32 0, i32* %6, align 4
  br label %14

14:                                               ; preds = %88, %0
  %15 = load i32, i32* %6, align 4
  %16 = load i32, i32* %1, align 4
  %17 = icmp slt i32 %15, %16
  br i1 %17, label %18, label %93

18:                                               ; preds = %14
  %19 = load i32*, i32** %4, align 8
  store i32 0, i32* %19, align 4
  %20 = call noalias i8* @calloc(i64 1000, i64 400) #3
  %21 = bitcast i8* %20 to i32*
  store i32* %21, i32** %8, align 8
  %22 = call i32 (i8*, ...) @__isoc99_scanf(i8* getelementptr inbounds ([6 x i8], [6 x i8]* @.str.1, i64 0, i64 0), i32* %2, i32* %3)
  %23 = load i32*, i32** %8, align 8
  store i32* %23, i32** %9, align 8
  store i32 0, i32* %5, align 4
  br label %24

24:                                               ; preds = %34, %18
  %25 = load i32, i32* %5, align 4
  %26 = load i32, i32* %2, align 4
  %27 = load i32, i32* %3, align 4
  %28 = mul nsw i32 %26, %27
  %29 = icmp slt i32 %25, %28
  br i1 %29, label %30, label %37

30:                                               ; preds = %24
  %31 = load i32*, i32** %8, align 8
  %32 = getelementptr inbounds i32, i32* %31, i32 1
  store i32* %32, i32** %8, align 8
  %33 = call i32 (i8*, ...) @__isoc99_scanf(i8* getelementptr inbounds ([3 x i8], [3 x i8]* @.str, i64 0, i64 0), i32* %31)
  br label %34

34:                                               ; preds = %30
  %35 = load i32, i32* %5, align 4
  %36 = add nsw i32 %35, 1
  store i32 %36, i32* %5, align 4
  br label %24

37:                                               ; preds = %24
  store i32 0, i32* %5, align 4
  %38 = load i32*, i32** %9, align 8
  store i32* %38, i32** %8, align 8
  br label %39

39:                                               ; preds = %82, %37
  %40 = load i32, i32* %5, align 4
  %41 = load i32, i32* %2, align 4
  %42 = load i32, i32* %3, align 4
  %43 = mul nsw i32 %41, %42
  %44 = icmp slt i32 %40, %43
  br i1 %44, label %45, label %87

45:                                               ; preds = %39
  %46 = load i32, i32* %5, align 4
  %47 = load i32, i32* %3, align 4
  %48 = icmp slt i32 %46, %47
  br i1 %48, label %74, label %49

49:                                               ; preds = %45
  %50 = load i32, i32* %5, align 4
  %51 = load i32, i32* %3, align 4
  %52 = srem i32 %50, %51
  %53 = icmp eq i32 %52, 0
  br i1 %53, label %74, label %54

54:                                               ; preds = %49
  %55 = load i32, i32* %5, align 4
  %56 = add nsw i32 %55, 1
  %57 = load i32, i32* %3, align 4
  %58 = srem i32 %56, %57
  %59 = icmp eq i32 %58, 0
  br i1 %59, label %74, label %60

60:                                               ; preds = %54
  %61 = load i32, i32* %5, align 4
  %62 = load i32, i32* %3, align 4
  %63 = load i32, i32* %2, align 4
  %64 = mul nsw i32 %62, %63
  %65 = icmp slt i32 %61, %64
  br i1 %65, label %66, label %81

66:                                               ; preds = %60
  %67 = load i32, i32* %5, align 4
  %68 = load i32, i32* %3, align 4
  %69 = load i32, i32* %2, align 4
  %70 = sub nsw i32 %69, 1
  %71 = mul nsw i32 %68, %70
  %72 = sub nsw i32 %71, 1
  %73 = icmp sgt i32 %67, %72
  br i1 %73, label %74, label %81

74:                                               ; preds = %66, %54, %49, %45
  %75 = load i32*, i32** %4, align 8
  %76 = load i32, i32* %75, align 4
  %77 = load i32*, i32** %8, align 8
  %78 = load i32, i32* %77, align 4
  %79 = add nsw i32 %76, %78
  %80 = load i32*, i32** %4, align 8
  store i32 %79, i32* %80, align 4
  br label %81

81:                                               ; preds = %74, %66, %60
  br label %82

82:                                               ; preds = %81
  %83 = load i32, i32* %5, align 4
  %84 = add nsw i32 %83, 1
  store i32 %84, i32* %5, align 4
  %85 = load i32*, i32** %8, align 8
  %86 = getelementptr inbounds i32, i32* %85, i32 1
  store i32* %86, i32** %8, align 8
  br label %39

87:                                               ; preds = %39
  br label %88

88:                                               ; preds = %87
  %89 = load i32, i32* %6, align 4
  %90 = add nsw i32 %89, 1
  store i32 %90, i32* %6, align 4
  %91 = load i32*, i32** %4, align 8
  %92 = getelementptr inbounds i32, i32* %91, i32 1
  store i32* %92, i32** %4, align 8
  br label %14

93:                                               ; preds = %14
  store i32 0, i32* %5, align 4
  %94 = load i32*, i32** %7, align 8
  store i32* %94, i32** %4, align 8
  br label %95

95:                                               ; preds = %105, %93
  %96 = load i32, i32* %5, align 4
  %97 = load i32, i32* %1, align 4
  %98 = sub nsw i32 %97, 1
  %99 = icmp slt i32 %96, %98
  br i1 %99, label %100, label %108

100:                                              ; preds = %95
  %101 = load i32*, i32** %4, align 8
  %102 = getelementptr inbounds i32, i32* %101, i32 1
  store i32* %102, i32** %4, align 8
  %103 = load i32, i32* %101, align 4
  %104 = call i32 (i8*, ...) @printf(i8* getelementptr inbounds ([4 x i8], [4 x i8]* @.str.2, i64 0, i64 0), i32 %103)
  br label %105

105:                                              ; preds = %100
  %106 = load i32, i32* %5, align 4
  %107 = add nsw i32 %106, 1
  store i32 %107, i32* %5, align 4
  br label %95

108:                                              ; preds = %95
  %109 = load i32*, i32** %4, align 8
  %110 = load i32, i32* %109, align 4
  %111 = call i32 (i8*, ...) @printf(i8* getelementptr inbounds ([3 x i8], [3 x i8]* @.str, i64 0, i64 0), i32 %110)
  ret void
}

; Function Attrs: nounwind
declare dso_local noalias i8* @malloc(i64) #1

declare dso_local i32 @__isoc99_scanf(i8*, ...) #2

; Function Attrs: nounwind
declare dso_local noalias i8* @calloc(i64, i64) #1

declare dso_local i32 @printf(i8*, ...) #2


!llvm.module.flags = !{!0}
!llvm.ident = !{!1}

!0 = !{i32 1, !"wchar_size", i32 4}
!1 = !{!"clang version 10.0.0-4ubuntu1 "}
